EXPORTS
    _Z10num_cadenaIdEPKcT_ @1
    _Z10num_cadenaIfEPKcT_ @2
    _Z10num_cadenaIiEPKcT_ @3
    _Z8bitmap_hP6BITMAP @4
    _Z8bitmap_wP6BITMAP @5
    _ZN3all11ALLE_STREAM11puntero_texEi @6
    _ZN3all11ALLE_STREAM12cargar_mouseERP6BITMAP @7
    _ZN3all11ALLE_STREAM12set_iteradorERKNS0_8iteradorE @8
    _ZN3all11ALLE_STREAM12write_screenEPKc @9
    _ZN3all11ALLE_STREAM13cargar_bitmapEP6BITMAPi @10
    _ZN3all11ALLE_STREAM13cargar_fuenteEP4FONT @11
    _ZN3all11ALLE_STREAM13cargar_fuenteEPKc @12
    _ZN3all11ALLE_STREAM13cargar_screenEi @13
    _ZN3all11ALLE_STREAM14set_stringbuffEPKc @14
    _ZN3all11ALLE_STREAM19iostream_alleg_initEP6BITMAPiiii @15
    _ZN3all11ALLE_STREAM19iostream_alleg_initEiiii @16
    _ZN3all11ALLE_STREAM2lnEv @17
    _ZN3all11ALLE_STREAM4COPYES0_ @18
    _ZN3all11ALLE_STREAM4getwEv @19
    _ZN3all11ALLE_STREAM4getxEv @20
    _ZN3all11ALLE_STREAM4getyEv @21
    _ZN3all11ALLE_STREAM6get_htEv @22
    _ZN3all11ALLE_STREAM6gotoxyEii @23
    _ZN3all11ALLE_STREAM7allmodoEi @24
    _ZN3all11ALLE_STREAM7get_keyEv @25
    _ZN3all11ALLE_STREAM7get_varEPc @26
    _ZN3all11ALLE_STREAM7get_varER6CADENA @27
    _ZN3all11ALLE_STREAM7get_varERSs @28
    _ZN3all11ALLE_STREAM7get_varERc @29
    _ZN3all11ALLE_STREAM7get_varERd @30
    _ZN3all11ALLE_STREAM7get_varERf @31
    _ZN3all11ALLE_STREAM7get_varERi @32
    _ZN3all11ALLE_STREAM7punteroEP6BITMAP @33
    _ZN3all11ALLE_STREAM8getcolorEv @34
    _ZN3all11ALLE_STREAM8iterador7delete_Ev @35
    _ZN3all11ALLE_STREAM8iteradorC1Ei @36
    _ZN3all11ALLE_STREAM8iteradorD1Ev @37
    _ZN3all11ALLE_STREAM8iteradorD2Ev @38
    _ZN3all11ALLE_STREAM8iteradorclEP6BITMAPi @39
    _ZN3all11ALLE_STREAM8iteradorclEi @40
    _ZN3all11ALLE_STREAM8iteradorclEii @41
    _ZN3all11ALLE_STREAM8read_keyEv @42
    _ZN3all11ALLE_STREAM8setcolorEi @43
    _ZN3all11ALLE_STREAM9clear_bufEv @44
    _ZN3all11ALLE_STREAMC1EP6BITMAPiiii @45
    _ZN3all11ALLE_STREAMC1ERKS0_ @46
    _ZN3all11ALLE_STREAMC1Eiiii @47
    _ZN3all11ALLE_STREAMC1Ev @48
    _ZN3all11ALLE_STREAMC2EP6BITMAPiiii @49
    _ZN3all11ALLE_STREAMC2ERKS0_ @50
    _ZN3all11ALLE_STREAMC2Eiiii @51
    _ZN3all11ALLE_STREAMC2Ev @52
    _ZN3all11ALLE_STREAMD1Ev @53
    _ZN3all11ALLE_STREAMD2Ev @54
    _ZN3all11ALLE_STREAMclEiiPc @55
    _ZN3all11ALLE_STREAMclEiiR6CADENA @56
    _ZN3all11ALLE_STREAMclEiiRKNS0_8iteradorE @57
    _ZN3all11ALLE_STREAMclEiiRPc @58
    _ZN3all11ALLE_STREAMclEiiRSs @59
    _ZN3all11ALLE_STREAMclEiiRc @60
    _ZN3all11ALLE_STREAMclEiiRd @61
    _ZN3all11ALLE_STREAMclEiiRf @62
    _ZN3all11ALLE_STREAMclEiiRi @63
    _ZN3all11ALLE_STREAMlsE6CADENA @64
    _ZN3all11ALLE_STREAMlsEPKc @65
    _ZN3all11ALLE_STREAMlsERKNS0_8iteradorE @66
    _ZN3all11ALLE_STREAMlsESs @67
    _ZN3all11ALLE_STREAMlsEc @68
    _ZN3all11ALLE_STREAMlsEd @69
    _ZN3all11ALLE_STREAMlsEf @70
    _ZN3all11ALLE_STREAMlsEi @71
    _ZN3all11ALLE_STREAMrsEPc @72
    _ZN3all11ALLE_STREAMrsER6CADENA @73
    _ZN3all11ALLE_STREAMrsERPc @74
    _ZN3all11ALLE_STREAMrsERSs @75
    _ZN3all11ALLE_STREAMrsERc @76
    _ZN3all11ALLE_STREAMrsERd @77
    _ZN3all11ALLE_STREAMrsERf @78
    _ZN3all11ALLE_STREAMrsERi @79
    _ZN3all3_xyE @80 DATA
    _ZN3all4_bmpE @81 DATA
    _ZN3all4_lmtE @82 DATA
    _ZN3all5_endlE @83 DATA
    _ZN3all6_endl2E @84 DATA
    _ZN3all6iosallE @85 DATA
    _ZN3all7_getkeyE @86 DATA
    _ZN3all9_clearbufE @87 DATA
    _ZN6CADENA4getnEv @88
    _ZN6CADENA5clearEv @89
    _ZN6CADENA6setcadEPKc @90
    _ZN6CADENAC1EPKc @91
    _ZN6CADENAC1ERKS_ @92
    _ZN6CADENAC1Ec @93
    _ZN6CADENAC1Ei @94
    _ZN6CADENAC1Ev @95
    _ZN6CADENAC2EPKc @96
    _ZN6CADENAC2ERKS_ @97
    _ZN6CADENAC2Ec @98
    _ZN6CADENAC2Ei @99
    _ZN6CADENAC2Ev @100
    _ZN6CADENAD1Ev @101
    _ZN6CADENAD2Ev @102
    _ZN6CADENAaSEPKc @103
    _ZN6CADENAaSEPc @104
    _ZN6CADENAaSERKS_ @105
    _ZN6CADENAaSESs @106
    _ZN6CADENAaSEc @107
    _ZN6CADENAclEv @108
    _ZN6CADENAcvPKcEv @109
    _ZN6CADENAixEi @110
    _ZN6CADENAmmEi @111
    _ZN6CADENApLEPKc @112
    _ZN6CADENApLERS_ @113
    _ZN6CADENApLESs @114
    _ZN6CADENApLEc @115
    _ZStorSt13_Ios_OpenmodeS_ @116
    _ZTISt9bad_alloc @117 DATA
    _ZTISt9exception @118 DATA
    _ZTSSt9bad_alloc @119 DATA
    _ZTSSt9exception @120 DATA
    _ZeqPKcRK6CADENA @121
    _ZeqRK6CADENAPKc @122
    _ZeqRK6CADENAS1_ @123
    _ZeqRK6CADENASs @124
    _ZeqSsRK6CADENA @125
    _ZlsRSoRK6CADENA @126
    _ZnePKcRK6CADENA @127
    _ZneRK6CADENAPKc @128
    _ZneRK6CADENAS1_ @129
    _ZneRK6CADENASs @130
    _ZneSsRK6CADENA @131
    _ZplPKcRK6CADENA @132
    _ZplRK6CADENAPKc @133
    _ZplRK6CADENAS1_ @134
    _ZplRK6CADENASs @135
    _ZplSsRK6CADENA @136
    _ZrsRSiR6CADENA @137
    _get_output_format @138
    all_scan @139
    c_line_read_key @140
    clear_string_buff @141
    create_string_buff @142
    destroy_string_buff @143
    get_scan @144
    pop_char @145
    push_char @146
    textscanf @147
    textscanf_ex @148
